; Function Attrs: norecurse nounwind uwtable
define internal void @_ZN5faiss22HeapBlockResultHandlerINS_4CMaxIflEEE11add_resultsEmmPKf.omp_outlined(ptr noalias nocapture noundef readonly %0, ptr noalias nocapture readnone %1, ptr nocapture noundef readonly %2, ptr nocapture noundef nonnull readonly align 8 dereferenceable(8) %3, ptr nocapture noundef nonnull readonly align 8 dereferenceable(8) %4, ptr nocapture noundef nonnull readonly align 8 dereferenceable(8) %5) #13 personality ptr @__gxx_personality_v0 {
  %7 = alloca i64, align 8
  %8 = alloca i64, align 8
  %9 = alloca i64, align 8
  %10 = alloca i32, align 4
  %11 = getelementptr inbounds i8, ptr %2, i64 16
  %12 = load i64, ptr %11, align 8
  %13 = getelementptr inbounds i8, ptr %2, i64 24
  %14 = load i64, ptr %13, align 8
  %15 = icmp ult i64 %12, %14
  br i1 %15, label %16, label %110

16:                                               ; preds = %6
  %17 = xor i64 %12, -1
  %18 = add i64 %14, %17
  store i64 0, ptr %7, align 8
  store i64 %18, ptr %8, align 8
  store i64 1, ptr %9, align 8
  store i32 0, ptr %10, align 4
  %19 = load i32, ptr %0, align 4
  call void @__kmpc_for_static_init_8u(ptr nonnull @1, i32 %19, i32 34, ptr nonnull %10, ptr nonnull %7, ptr nonnull %8, ptr nonnull %9, i64 1, i64 1)
  %20 = load i64, ptr %8, align 8
  %21 = call i64 @llvm.umin.i64(i64 %20, i64 %18)
  store i64 %21, ptr %8, align 8
  %22 = load i64, ptr %7, align 8
  %23 = add i64 %21, 1
  %24 = icmp ult i64 %22, %23
  br i1 %24, label %.lr.ph41, label %._crit_edge42

.lr.ph41:                                         ; preds = %16
  %25 = getelementptr inbounds i8, ptr %2, i64 32
  %26 = getelementptr inbounds i8, ptr %2, i64 48
  %27 = getelementptr inbounds i8, ptr %2, i64 40
  %28 = load i64, ptr %5, align 8
  %29 = load i64, ptr %4, align 8
  %30 = icmp ult i64 %28, %29
  br i1 %30, label %.lr.ph41.split, label %._crit_edge42

.lr.ph41.split:                                   ; preds = %.lr.ph41, %._crit_edge
  %31 = phi i64 [ %104, %._crit_edge ], [ %21, %.lr.ph41 ]
  %32 = phi i64 [ %105, %._crit_edge ], [ %29, %.lr.ph41 ]
  %33 = phi i64 [ %106, %._crit_edge ], [ %29, %.lr.ph41 ]
  %.039 = phi i64 [ %107, %._crit_edge ], [ %22, %.lr.ph41 ]
  %34 = add i64 %.039, %12
  %35 = load ptr, ptr %25, align 8
  %36 = load i64, ptr %26, align 8
  %37 = mul nsw i64 %36, %34
  %38 = getelementptr inbounds float, ptr %35, i64 %37
  %39 = load ptr, ptr %3, align 8
  %40 = load i64, ptr %5, align 8
  %41 = sub i64 %33, %40
  %42 = load i64, ptr %11, align 8
  %43 = sub i64 %34, %42
  %44 = mul i64 %43, %41
  %45 = getelementptr inbounds float, ptr %39, i64 %44
  %46 = sub i64 0, %40
  %47 = getelementptr inbounds float, ptr %45, i64 %46
  %48 = icmp ult i64 %40, %33
  br i1 %48, label %.lr.ph, label %._crit_edge

.lr.ph:                                           ; preds = %.lr.ph41.split
  %49 = load float, ptr %38, align 4
  %50 = load ptr, ptr %27, align 8
  %51 = getelementptr inbounds i64, ptr %50, i64 %37
  %52 = getelementptr inbounds i8, ptr %38, i64 -4
  %53 = getelementptr inbounds i8, ptr %51, i64 -8
  br label %54

54:                                               ; preds = %.lr.ph, %100
  %55 = phi i64 [ %32, %.lr.ph ], [ %101, %100 ]
  %.03236 = phi i64 [ %40, %.lr.ph ], [ %102, %100 ]
  %.03335 = phi float [ %49, %.lr.ph ], [ %.1, %100 ]
  %56 = getelementptr inbounds float, ptr %47, i64 %.03236
  %57 = load float, ptr %56, align 4
  %58 = fcmp ogt float %.03335, %57
  br i1 %58, label %59, label %100

59:                                               ; preds = %54
  %60 = load i64, ptr %26, align 8
  %61 = icmp ult i64 %60, 2
  br i1 %61, label %_ZN5faiss16heap_replace_topINS_4CMaxIflEEEEvmPNT_1TEPNS3_2TIES4_S6_.exit, label %.lr.ph.preheader.i

.lr.ph.preheader.i:                               ; preds = %59
  %.phi.trans.insert.i = getelementptr inbounds float, ptr %52, i64 %60
  br label %.lr.ph.i

.lr.ph.i:                                         ; preds = %90, %.lr.ph.preheader.i
  %62 = phi i64 [ %95, %90 ], [ 3, %.lr.ph.preheader.i ]
  %63 = phi i64 [ %94, %90 ], [ 2, %.lr.ph.preheader.i ]
  %.056.i = phi i64 [ %.1.i, %90 ], [ 1, %.lr.ph.preheader.i ]
  %64 = icmp eq i64 %63, %60
  br i1 %64, label %.lr.ph._ZN5faiss4CMaxIflE4cmp2Effll.exit.thread_crit_edge.i, label %65

.lr.ph._ZN5faiss4CMaxIflE4cmp2Effll.exit.thread_crit_edge.i: ; preds = %.lr.ph.i
  %.pre.i = load float, ptr %.phi.trans.insert.i, align 4
  br label %_ZN5faiss4CMaxIflE4cmp2Effll.exit.thread.i

65:                                               ; preds = %.lr.ph.i
  %66 = getelementptr inbounds float, ptr %52, i64 %63
  %67 = load float, ptr %66, align 4
  %68 = getelementptr inbounds float, ptr %52, i64 %62
  %69 = load float, ptr %68, align 4
  %70 = getelementptr inbounds i64, ptr %53, i64 %62
  %71 = load i64, ptr %70, align 8
  %72 = fcmp ogt float %67, %69
  br i1 %72, label %_ZN5faiss4CMaxIflE4cmp2Effll.exit.thread.i, label %_ZN5faiss4CMaxIflE4cmp2Effll.exit.i

_ZN5faiss4CMaxIflE4cmp2Effll.exit.i:              ; preds = %65
  %73 = getelementptr inbounds i64, ptr %53, i64 %63
  %74 = load i64, ptr %73, align 8
  %75 = fcmp oeq float %67, %69
  %76 = icmp sgt i64 %74, %71
  %77 = and i1 %75, %76
  br i1 %77, label %_ZN5faiss4CMaxIflE4cmp2Effll.exit.thread.i, label %85

_ZN5faiss4CMaxIflE4cmp2Effll.exit.thread.i:       ; preds = %_ZN5faiss4CMaxIflE4cmp2Effll.exit.i, %65, %.lr.ph._ZN5faiss4CMaxIflE4cmp2Effll.exit.thread_crit_edge.i
  %78 = phi float [ %.pre.i, %.lr.ph._ZN5faiss4CMaxIflE4cmp2Effll.exit.thread_crit_edge.i ], [ %67, %65 ], [ %67, %_ZN5faiss4CMaxIflE4cmp2Effll.exit.i ]
  %79 = fcmp olt float %78, %57
  br i1 %79, label %_ZN5faiss16heap_replace_topINS_4CMaxIflEEEEvmPNT_1TEPNS3_2TIES4_S6_.exit, label %_ZN5faiss4CMaxIflE4cmp2Effll.exit54.i

_ZN5faiss4CMaxIflE4cmp2Effll.exit54.i:            ; preds = %_ZN5faiss4CMaxIflE4cmp2Effll.exit.thread.i
  %80 = getelementptr inbounds i64, ptr %53, i64 %63
  %81 = load i64, ptr %80, align 8
  %82 = fcmp oeq float %78, %57
  %83 = icmp slt i64 %81, %.03236
  %84 = and i1 %82, %83
  br i1 %84, label %_ZN5faiss16heap_replace_topINS_4CMaxIflEEEEvmPNT_1TEPNS3_2TIES4_S6_.exit, label %90

85:                                               ; preds = %_ZN5faiss4CMaxIflE4cmp2Effll.exit.i
  %86 = fcmp olt float %69, %57
  br i1 %86, label %_ZN5faiss16heap_replace_topINS_4CMaxIflEEEEvmPNT_1TEPNS3_2TIES4_S6_.exit, label %_ZN5faiss4CMaxIflE4cmp2Effll.exit55.i

_ZN5faiss4CMaxIflE4cmp2Effll.exit55.i:            ; preds = %85
  %87 = fcmp oeq float %69, %57
  %88 = icmp slt i64 %71, %.03236
  %89 = and i1 %87, %88
  br i1 %89, label %_ZN5faiss16heap_replace_topINS_4CMaxIflEEEEvmPNT_1TEPNS3_2TIES4_S6_.exit, label %90

90:                                               ; preds = %_ZN5faiss4CMaxIflE4cmp2Effll.exit55.i, %_ZN5faiss4CMaxIflE4cmp2Effll.exit54.i
  %.sink.i = phi float [ %78, %_ZN5faiss4CMaxIflE4cmp2Effll.exit54.i ], [ %69, %_ZN5faiss4CMaxIflE4cmp2Effll.exit55.i ]
  %.sink63.i = phi ptr [ %80, %_ZN5faiss4CMaxIflE4cmp2Effll.exit54.i ], [ %70, %_ZN5faiss4CMaxIflE4cmp2Effll.exit55.i ]
  %.1.i = phi i64 [ %63, %_ZN5faiss4CMaxIflE4cmp2Effll.exit54.i ], [ %62, %_ZN5faiss4CMaxIflE4cmp2Effll.exit55.i ]
  %91 = getelementptr inbounds float, ptr %52, i64 %.056.i
  store float %.sink.i, ptr %91, align 4
  %92 = load i64, ptr %.sink63.i, align 8
  %93 = getelementptr inbounds i64, ptr %53, i64 %.056.i
  store i64 %92, ptr %93, align 8
  %94 = shl i64 %.1.i, 1
  %95 = or disjoint i64 %94, 1
  %96 = icmp ugt i64 %94, %60
  br i1 %96, label %_ZN5faiss16heap_replace_topINS_4CMaxIflEEEEvmPNT_1TEPNS3_2TIES4_S6_.exit, label %.lr.ph.i, !llvm.loop !11

_ZN5faiss16heap_replace_topINS_4CMaxIflEEEEvmPNT_1TEPNS3_2TIES4_S6_.exit: ; preds = %_ZN5faiss4CMaxIflE4cmp2Effll.exit.thread.i, %_ZN5faiss4CMaxIflE4cmp2Effll.exit54.i, %85, %_ZN5faiss4CMaxIflE4cmp2Effll.exit55.i, %90, %59
  %.0.lcssa.i = phi i64 [ 1, %59 ], [ %.1.i, %90 ], [ %.056.i, %_ZN5faiss4CMaxIflE4cmp2Effll.exit54.i ], [ %.056.i, %_ZN5faiss4CMaxIflE4cmp2Effll.exit55.i ], [ %.056.i, %_ZN5faiss4CMaxIflE4cmp2Effll.exit.thread.i ], [ %.056.i, %85 ]
  %97 = getelementptr inbounds float, ptr %52, i64 %.0.lcssa.i
  store float %57, ptr %97, align 4
  %98 = getelementptr inbounds i64, ptr %53, i64 %.0.lcssa.i
  store i64 %.03236, ptr %98, align 8
  %99 = load float, ptr %38, align 4
  %.pre = load i64, ptr %4, align 8
  br label %100

100:                                              ; preds = %54, %_ZN5faiss16heap_replace_topINS_4CMaxIflEEEEvmPNT_1TEPNS3_2TIES4_S6_.exit
  %101 = phi i64 [ %.pre, %_ZN5faiss16heap_replace_topINS_4CMaxIflEEEEvmPNT_1TEPNS3_2TIES4_S6_.exit ], [ %55, %54 ]
  %.1 = phi float [ %99, %_ZN5faiss16heap_replace_topINS_4CMaxIflEEEEvmPNT_1TEPNS3_2TIES4_S6_.exit ], [ %.03335, %54 ]
  %102 = add nuw i64 %.03236, 1
  %103 = icmp ult i64 %102, %101
  br i1 %103, label %54, label %._crit_edge.loopexit, !llvm.loop !12

._crit_edge.loopexit:                             ; preds = %100
  %.pre44 = load i64, ptr %8, align 8
  br label %._crit_edge

._crit_edge:                                      ; preds = %._crit_edge.loopexit, %.lr.ph41.split
  %104 = phi i64 [ %.pre44, %._crit_edge.loopexit ], [ %31, %.lr.ph41.split ]
  %105 = phi i64 [ %101, %._crit_edge.loopexit ], [ %32, %.lr.ph41.split ]
  %106 = phi i64 [ %101, %._crit_edge.loopexit ], [ %33, %.lr.ph41.split ]
  %107 = add nuw i64 %.039, 1
  %108 = add i64 %104, 1
  %109 = icmp ult i64 %107, %108
  br i1 %109, label %.lr.ph41.split, label %._crit_edge42, !llvm.loop !13

._crit_edge42:                                    ; preds = %._crit_edge, %.lr.ph41, %16
  call void @__kmpc_for_static_fini(ptr nonnull @1, i32 %19)
  br label %110

110:                                              ; preds = %._crit_edge42, %6
  ret void
}